target datalayout = "e-m:e-p270:32:32-p271:32:32-p272:64:64-i64:64-i128:128-f80:128-n8:16:32:64-S128"
target triple = "x86_64-pc-linux-gnu"

%struct.tcpcl_dissect_ctx_t = type { ptr, ptr, i8, ptr, ptr, ptr }
%struct.tcpcl_conversation_t = type { ptr, ptr, ptr, i8, i8, ptr, i8, i16 }
%struct.tcpcl_peer_t = type { %struct._address, i32, i8, ptr, i8, i8, ptr, i16, i64, i64, ptr, i8, ptr, ptr }
%struct._address = type { i32, i32, ptr, ptr }
%struct._packet_info = type { ptr, ptr, i32, i32, %struct.nstime_t, %struct.nstime_t, %struct.nstime_t, i8, ptr, ptr, ptr, ptr, %struct._address, %struct._address, %struct._address, %struct._address, %struct._address, %struct._address, i32, ptr, i8, [3 x i8], %struct.anon, i32, i32, i32, i32, ptr, i8, ptr, ptr, i16, i16, i32, i32, i16, i32, i32, ptr, ptr, ptr, i8, i8, i16, i16, i16, i32, i16, i16, ptr, ptr, ptr, ptr, ptr, i32, i32 }
%struct.nstime_t = type { i64, i32 }
%struct.anon = type { i8, [3 x i8] }
%struct.tcpcl_frame_loc_t = type { i32, i32, i32 }
%struct._GSList = type { ptr, ptr }
%struct.tvbuff = type { ptr, ptr, i8, i32, ptr, ptr, i32, i32, i32, i32 }

@proto_tcpcl = internal global i32 0, align 4

; Function Attrs: null_pointer_is_valid sspstrong uwtable
define internal void @tcpcl_frame_loc_init(ptr noundef %0, ptr noundef %1, ptr noundef %2, i32 noundef %3) #0 {
  %5 = alloca ptr, align 8
  %6 = alloca ptr, align 8
  %7 = alloca ptr, align 8
  %8 = alloca i32, align 4
  %9 = alloca ptr, align 8
  %10 = alloca i32, align 4
  %11 = alloca ptr, align 8
  store ptr %0, ptr %5, align 8
  store ptr %1, ptr %6, align 8
  store ptr %2, ptr %7, align 8
  store i32 %3, ptr %8, align 4
  %12 = load ptr, ptr %6, align 8
  %13 = getelementptr inbounds nuw %struct._packet_info, ptr %12, i32 0, i32 3
  %14 = load i32, ptr %13, align 4
  %15 = load ptr, ptr %5, align 8
  %16 = getelementptr inbounds nuw %struct.tcpcl_frame_loc_t, ptr %15, i32 0, i32 0
  store i32 %14, ptr %16, align 4
  %17 = load ptr, ptr %5, align 8
  %18 = getelementptr inbounds nuw %struct.tcpcl_frame_loc_t, ptr %17, i32 0, i32 1
  store i32 -1, ptr %18, align 4
  call void @llvm.lifetime.start.p0(i64 8, ptr %9) #11
  %19 = load ptr, ptr %6, align 8
  %20 = getelementptr inbounds nuw %struct._packet_info, ptr %19, i32 0, i32 11
  %21 = load ptr, ptr %20, align 8
  store ptr %21, ptr %9, align 8
  br label %22

22:                                               ; preds = %55, %4
  %23 = load ptr, ptr %9, align 8
  %24 = icmp ne ptr %23, null
  br i1 %24, label %26, label %25

25:                                               ; preds = %22
  store i32 2, ptr %10, align 4
  br label %57

26:                                               ; preds = %22
  %27 = load ptr, ptr %5, align 8
  %28 = getelementptr inbounds nuw %struct.tcpcl_frame_loc_t, ptr %27, i32 0, i32 1
  %29 = load i32, ptr %28, align 4
  %30 = add i32 %29, 1
  store i32 %30, ptr %28, align 4
  call void @llvm.lifetime.start.p0(i64 8, ptr %11) #11
  %31 = load ptr, ptr %9, align 8
  %32 = getelementptr inbounds nuw %struct._GSList, ptr %31, i32 0, i32 0
  %33 = load ptr, ptr %32, align 8
  store ptr %33, ptr %11, align 8
  %34 = load ptr, ptr %11, align 8
  %35 = call ptr @get_data_source_tvb(ptr noundef %34)
  %36 = getelementptr inbounds nuw %struct.tvbuff, ptr %35, i32 0, i32 5
  %37 = load ptr, ptr %36, align 8
  %38 = load ptr, ptr %7, align 8
  %39 = getelementptr inbounds nuw %struct.tvbuff, ptr %38, i32 0, i32 5
  %40 = load ptr, ptr %39, align 8
  %41 = icmp eq ptr %37, %40
  br i1 %41, label %42, label %43

42:                                               ; preds = %26
  store i32 2, ptr %10, align 4
  br label %44

43:                                               ; preds = %26
  store i32 0, ptr %10, align 4
  br label %44

44:                                               ; preds = %43, %42
  call void @llvm.lifetime.end.p0(i64 8, ptr %11) #11
  %45 = load i32, ptr %10, align 4
  switch i32 %45, label %57 [
    i32 0, label %46
  ]

46:                                               ; preds = %44
  br label %47

47:                                               ; preds = %46
  %48 = load ptr, ptr %9, align 8
  %49 = icmp ne ptr %48, null
  br i1 %49, label %50, label %54

50:                                               ; preds = %47
  %51 = load ptr, ptr %9, align 8
  %52 = getelementptr inbounds nuw %struct._GSList, ptr %51, i32 0, i32 1
  %53 = load ptr, ptr %52, align 8
  br label %55

54:                                               ; preds = %47
  br label %55

55:                                               ; preds = %54, %50
  %56 = phi ptr [ %53, %50 ], [ null, %54 ]
  store ptr %56, ptr %9, align 8
  br label %22, !llvm.loop !8

57:                                               ; preds = %44, %25
  call void @llvm.lifetime.end.p0(i64 8, ptr %9) #11
  br label %58

58:                                               ; preds = %57
  %59 = load ptr, ptr %7, align 8
  %60 = call i32 @tvb_raw_offset(ptr noundef %59)
  %61 = load i32, ptr %8, align 4
  %62 = add i32 %60, %61
  %63 = load ptr, ptr %5, align 8
  %64 = getelementptr inbounds nuw %struct.tcpcl_frame_loc_t, ptr %63, i32 0, i32 2
  store i32 %62, ptr %64, align 4
  ret void
}

; Function Attrs: nounwind null_pointer_is_valid sspstrong uwtable
define internal i32 @tcpcl_frame_loc_equal(ptr noundef %0, ptr noundef %1) #5 {
  %3 = alloca ptr, align 8
  %4 = alloca ptr, align 8
  %5 = alloca ptr, align 8
  %6 = alloca ptr, align 8
  store ptr %0, ptr %3, align 8
  store ptr %1, ptr %4, align 8
  call void @llvm.lifetime.start.p0(i64 8, ptr %5) #11
  %7 = load ptr, ptr %3, align 8
  store ptr %7, ptr %5, align 8
  call void @llvm.lifetime.start.p0(i64 8, ptr %6) #11
  %8 = load ptr, ptr %4, align 8
  store ptr %8, ptr %6, align 8
  %9 = load ptr, ptr %5, align 8
  %10 = getelementptr inbounds nuw %struct.tcpcl_frame_loc_t, ptr %9, i32 0, i32 0
  %11 = load i32, ptr %10, align 4
  %12 = load ptr, ptr %6, align 8
  %13 = getelementptr inbounds nuw %struct.tcpcl_frame_loc_t, ptr %12, i32 0, i32 0
  %14 = load i32, ptr %13, align 4
  %15 = icmp eq i32 %11, %14
  br i1 %15, label %16, label %24

16:                                               ; preds = %2
  %17 = load ptr, ptr %5, align 8
  %18 = getelementptr inbounds nuw %struct.tcpcl_frame_loc_t, ptr %17, i32 0, i32 2
  %19 = load i32, ptr %18, align 4
  %20 = load ptr, ptr %6, align 8
  %21 = getelementptr inbounds nuw %struct.tcpcl_frame_loc_t, ptr %20, i32 0, i32 2
  %22 = load i32, ptr %21, align 4
  %23 = icmp eq i32 %19, %22
  br label %24

24:                                               ; preds = %16, %2
  %25 = phi i1 [ false, %2 ], [ %23, %16 ]
  %26 = zext i1 %25 to i32
  call void @llvm.lifetime.end.p0(i64 8, ptr %6) #11
  call void @llvm.lifetime.end.p0(i64 8, ptr %5) #11
  ret i32 %26
}

; Function Attrs: inlinehint nounwind null_pointer_is_valid sspstrong uwtable
define internal zeroext i1 @addresses_equal(ptr noundef %0, ptr noundef %1) #4 {
  %3 = alloca i1, align 1
  %4 = alloca ptr, align 8
  %5 = alloca ptr, align 8
  store ptr %0, ptr %4, align 8
  store ptr %1, ptr %5, align 8
  %6 = load ptr, ptr %4, align 8
  %7 = getelementptr inbounds nuw %struct._address, ptr %6, i32 0, i32 0
  %8 = load i32, ptr %7, align 8
  %9 = load ptr, ptr %5, align 8
  %10 = getelementptr inbounds nuw %struct._address, ptr %9, i32 0, i32 0
  %11 = load i32, ptr %10, align 8
  %12 = icmp eq i32 %8, %11
  br i1 %12, label %13, label %40

13:                                               ; preds = %2
  %14 = load ptr, ptr %4, align 8
  %15 = getelementptr inbounds nuw %struct._address, ptr %14, i32 0, i32 1
  %16 = load i32, ptr %15, align 4
  %17 = load ptr, ptr %5, align 8
  %18 = getelementptr inbounds nuw %struct._address, ptr %17, i32 0, i32 1
  %19 = load i32, ptr %18, align 4
  %20 = icmp eq i32 %16, %19
  br i1 %20, label %21, label %40

21:                                               ; preds = %13
  %22 = load ptr, ptr %4, align 8
  %23 = getelementptr inbounds nuw %struct._address, ptr %22, i32 0, i32 1
  %24 = load i32, ptr %23, align 4
  %25 = icmp eq i32 %24, 0
  br i1 %25, label %39, label %26

26:                                               ; preds = %21
  %27 = load ptr, ptr %4, align 8
  %28 = getelementptr inbounds nuw %struct._address, ptr %27, i32 0, i32 2
  %29 = load ptr, ptr %28, align 8
  %30 = load ptr, ptr %5, align 8
  %31 = getelementptr inbounds nuw %struct._address, ptr %30, i32 0, i32 2
  %32 = load ptr, ptr %31, align 8
  %33 = load ptr, ptr %4, align 8
  %34 = getelementptr inbounds nuw %struct._address, ptr %33, i32 0, i32 1
  %35 = load i32, ptr %34, align 4
  %36 = sext i32 %35 to i64
  %37 = call i32 @memcmp(ptr noundef %29, ptr noundef %32, i64 noundef %36) #13
  %38 = icmp eq i32 %37, 0
  br i1 %38, label %39, label %40

39:                                               ; preds = %26, %21
  store i1 true, ptr %3, align 1
  br label %41

40:                                               ; preds = %26, %13, %2
  store i1 false, ptr %3, align 1
  br label %41

41:                                               ; preds = %40, %39
  %42 = load i1, ptr %3, align 1
  ret i1 %42
}

; Function Attrs: null_pointer_is_valid sspstrong uwtable
define internal ptr @tcpcl_frame_loc_new(ptr noundef %0, ptr noundef %1, ptr noundef %2, i32 noundef %3) #0 {
  %5 = alloca ptr, align 8
  %6 = alloca ptr, align 8
  %7 = alloca ptr, align 8
  %8 = alloca i32, align 4
  %9 = alloca ptr, align 8
  store ptr %0, ptr %5, align 8
  store ptr %1, ptr %6, align 8
  store ptr %2, ptr %7, align 8
  store i32 %3, ptr %8, align 4
  call void @llvm.lifetime.start.p0(i64 8, ptr %9) #11
  %10 = load ptr, ptr %5, align 8
  %11 = call noalias ptr @wmem_alloc(ptr noundef %10, i64 noundef 12) #12
  store ptr %11, ptr %9, align 8
  %12 = load ptr, ptr %9, align 8
  %13 = load ptr, ptr %6, align 8
  %14 = load ptr, ptr %7, align 8
  %15 = load i32, ptr %8, align 4
  call void @tcpcl_frame_loc_init(ptr noundef %12, ptr noundef %13, ptr noundef %14, i32 noundef %15)
  %16 = load ptr, ptr %9, align 8
  call void @llvm.lifetime.end.p0(i64 8, ptr %9) #11
  ret ptr %16
}

; Function Attrs: null_pointer_is_valid sspstrong uwtable
define ptr @tcpcl_dissect_ctx_get(ptr noundef %0, ptr noundef %1, i32 noundef %2) #0 {
  %4 = alloca ptr, align 8
  %5 = alloca ptr, align 8
  %6 = alloca ptr, align 8
  %7 = alloca i32, align 4
  %8 = alloca ptr, align 8
  %9 = alloca ptr, align 8
  %10 = alloca i32, align 4
  %11 = alloca ptr, align 8
  %12 = alloca i8, align 1
  store ptr %0, ptr %5, align 8
  store ptr %1, ptr %6, align 8
  store i32 %2, ptr %7, align 4
  call void @llvm.lifetime.start.p0(i64 8, ptr %8) #11
  %13 = load ptr, ptr %6, align 8
  %14 = call ptr @find_or_create_conversation(ptr noundef %13)
  store ptr %14, ptr %8, align 8
  call void @llvm.lifetime.start.p0(i64 8, ptr %9) #11
  %15 = load ptr, ptr %8, align 8
  %16 = load i32, ptr @proto_tcpcl, align 4
  %17 = call ptr @conversation_get_proto_data(ptr noundef %15, i32 noundef %16)
  store ptr %17, ptr %9, align 8
  %18 = load ptr, ptr %9, align 8
  %19 = icmp ne ptr %18, null
  br i1 %19, label %21, label %20

20:                                               ; preds = %3
  store ptr null, ptr %4, align 8
  store i32 1, ptr %10, align 4
  br label %123

21:                                               ; preds = %3
  call void @llvm.lifetime.start.p0(i64 8, ptr %11) #11
  %22 = call ptr @wmem_packet_scope()
  %23 = call noalias ptr @wmem_alloc0(ptr noundef %22, i64 noundef 48) #12
  store ptr %23, ptr %11, align 8
  %24 = load ptr, ptr %9, align 8
  %25 = load ptr, ptr %11, align 8
  %26 = getelementptr inbounds nuw %struct.tcpcl_dissect_ctx_t, ptr %25, i32 0, i32 0
  store ptr %24, ptr %26, align 8
  %27 = call ptr @wmem_packet_scope()
  %28 = load ptr, ptr %6, align 8
  %29 = load ptr, ptr %5, align 8
  %30 = load i32, ptr %7, align 4
  %31 = call ptr @tcpcl_frame_loc_new(ptr noundef %27, ptr noundef %28, ptr noundef %29, i32 noundef %30)
  %32 = load ptr, ptr %11, align 8
  %33 = getelementptr inbounds nuw %struct.tcpcl_dissect_ctx_t, ptr %32, i32 0, i32 1
  store ptr %31, ptr %33, align 8
  call void @llvm.lifetime.start.p0(i64 1, ptr %12) #11
  %34 = load ptr, ptr %11, align 8
  %35 = getelementptr inbounds nuw %struct.tcpcl_dissect_ctx_t, ptr %34, i32 0, i32 0
  %36 = load ptr, ptr %35, align 8
  %37 = getelementptr inbounds nuw %struct.tcpcl_conversation_t, ptr %36, i32 0, i32 0
  %38 = load ptr, ptr %37, align 8
  %39 = getelementptr inbounds nuw %struct.tcpcl_peer_t, ptr %38, i32 0, i32 0
  %40 = load ptr, ptr %6, align 8
  %41 = getelementptr inbounds nuw %struct._packet_info, ptr %40, i32 0, i32 16
  %42 = call zeroext i1 @addresses_equal(ptr noundef %39, ptr noundef %41)
  br i1 %42, label %43, label %55

43:                                               ; preds = %21
  %44 = load ptr, ptr %11, align 8
  %45 = getelementptr inbounds nuw %struct.tcpcl_dissect_ctx_t, ptr %44, i32 0, i32 0
  %46 = load ptr, ptr %45, align 8
  %47 = getelementptr inbounds nuw %struct.tcpcl_conversation_t, ptr %46, i32 0, i32 0
  %48 = load ptr, ptr %47, align 8
  %49 = getelementptr inbounds nuw %struct.tcpcl_peer_t, ptr %48, i32 0, i32 1
  %50 = load i32, ptr %49, align 8
  %51 = load ptr, ptr %6, align 8
  %52 = getelementptr inbounds nuw %struct._packet_info, ptr %51, i32 0, i32 24
  %53 = load i32, ptr %52, align 4
  %54 = icmp eq i32 %50, %53
  br label %55

55:                                               ; preds = %43, %21
  %56 = phi i1 [ false, %21 ], [ %54, %43 ]
  %57 = zext i1 %56 to i8
  store i8 %57, ptr %12, align 1
  %58 = load i8, ptr %12, align 1, !range !6, !noundef !7
  %59 = trunc i8 %58 to i1
  br i1 %59, label %60, label %75

60:                                               ; preds = %55
  %61 = load ptr, ptr %11, align 8
  %62 = getelementptr inbounds nuw %struct.tcpcl_dissect_ctx_t, ptr %61, i32 0, i32 0
  %63 = load ptr, ptr %62, align 8
  %64 = getelementptr inbounds nuw %struct.tcpcl_conversation_t, ptr %63, i32 0, i32 0
  %65 = load ptr, ptr %64, align 8
  %66 = load ptr, ptr %11, align 8
  %67 = getelementptr inbounds nuw %struct.tcpcl_dissect_ctx_t, ptr %66, i32 0, i32 3
  store ptr %65, ptr %67, align 8
  %68 = load ptr, ptr %11, align 8
  %69 = getelementptr inbounds nuw %struct.tcpcl_dissect_ctx_t, ptr %68, i32 0, i32 0
  %70 = load ptr, ptr %69, align 8
  %71 = getelementptr inbounds nuw %struct.tcpcl_conversation_t, ptr %70, i32 0, i32 1
  %72 = load ptr, ptr %71, align 8
  %73 = load ptr, ptr %11, align 8
  %74 = getelementptr inbounds nuw %struct.tcpcl_dissect_ctx_t, ptr %73, i32 0, i32 4
  store ptr %72, ptr %74, align 8
  br label %90

75:                                               ; preds = %55
  %76 = load ptr, ptr %11, align 8
  %77 = getelementptr inbounds nuw %struct.tcpcl_dissect_ctx_t, ptr %76, i32 0, i32 0
  %78 = load ptr, ptr %77, align 8
  %79 = getelementptr inbounds nuw %struct.tcpcl_conversation_t, ptr %78, i32 0, i32 1
  %80 = load ptr, ptr %79, align 8
  %81 = load ptr, ptr %11, align 8
  %82 = getelementptr inbounds nuw %struct.tcpcl_dissect_ctx_t, ptr %81, i32 0, i32 3
  store ptr %80, ptr %82, align 8
  %83 = load ptr, ptr %11, align 8
  %84 = getelementptr inbounds nuw %struct.tcpcl_dissect_ctx_t, ptr %83, i32 0, i32 0
  %85 = load ptr, ptr %84, align 8
  %86 = getelementptr inbounds nuw %struct.tcpcl_conversation_t, ptr %85, i32 0, i32 0
  %87 = load ptr, ptr %86, align 8
  %88 = load ptr, ptr %11, align 8
  %89 = getelementptr inbounds nuw %struct.tcpcl_dissect_ctx_t, ptr %88, i32 0, i32 4
  store ptr %87, ptr %89, align 8
  br label %90

90:                                               ; preds = %75, %60
  %91 = load ptr, ptr %11, align 8
  %92 = getelementptr inbounds nuw %struct.tcpcl_dissect_ctx_t, ptr %91, i32 0, i32 3
  %93 = load ptr, ptr %92, align 8
  %94 = getelementptr inbounds nuw %struct.tcpcl_peer_t, ptr %93, i32 0, i32 2
  %95 = load i8, ptr %94, align 4, !range !6, !noundef !7
  %96 = trunc i8 %95 to i1
  br i1 %96, label %117, label %97

97:                                               ; preds = %90
  %98 = load ptr, ptr %11, align 8
  %99 = getelementptr inbounds nuw %struct.tcpcl_dissect_ctx_t, ptr %98, i32 0, i32 3
  %100 = load ptr, ptr %99, align 8
  %101 = getelementptr inbounds nuw %struct.tcpcl_peer_t, ptr %100, i32 0, i32 3
  %102 = load ptr, ptr %101, align 8
  %103 = icmp ne ptr %102, null
  br i1 %103, label %104, label %115

104:                                              ; preds = %97
  %105 = load ptr, ptr %11, align 8
  %106 = getelementptr inbounds nuw %struct.tcpcl_dissect_ctx_t, ptr %105, i32 0, i32 3
  %107 = load ptr, ptr %106, align 8
  %108 = getelementptr inbounds nuw %struct.tcpcl_peer_t, ptr %107, i32 0, i32 3
  %109 = load ptr, ptr %108, align 8
  %110 = load ptr, ptr %11, align 8
  %111 = getelementptr inbounds nuw %struct.tcpcl_dissect_ctx_t, ptr %110, i32 0, i32 1
  %112 = load ptr, ptr %111, align 8
  %113 = call i32 @tcpcl_frame_loc_equal(ptr noundef %109, ptr noundef %112)
  %114 = icmp ne i32 %113, 0
  br label %115

115:                                              ; preds = %104, %97
  %116 = phi i1 [ true, %97 ], [ %114, %104 ]
  br label %117

117:                                              ; preds = %115, %90
  %118 = phi i1 [ false, %90 ], [ %116, %115 ]
  %119 = load ptr, ptr %11, align 8
  %120 = getelementptr inbounds nuw %struct.tcpcl_dissect_ctx_t, ptr %119, i32 0, i32 2
  %121 = zext i1 %118 to i8
  store i8 %121, ptr %120, align 8
  %122 = load ptr, ptr %11, align 8
  store ptr %122, ptr %4, align 8
  store i32 1, ptr %10, align 4
  call void @llvm.lifetime.end.p0(i64 1, ptr %12) #11
  call void @llvm.lifetime.end.p0(i64 8, ptr %11) #11
  br label %123

123:                                              ; preds = %117, %20
  call void @llvm.lifetime.end.p0(i64 8, ptr %9) #11
  call void @llvm.lifetime.end.p0(i64 8, ptr %8) #11
  %124 = load ptr, ptr %4, align 8
  ret ptr %124
}