; Function Attrs: null_pointer_is_valid sspstrong uwtable
define noalias noundef ptr @tcpcl_dissect_ctx_get(ptr noundef %0, ptr noundef %1, i32 noundef %2) local_unnamed_addr #0 {
  %4 = tail call ptr @find_or_create_conversation(ptr noundef %1)
  %5 = load i32, ptr @proto_tcpcl, align 4
  %6 = tail call ptr @conversation_get_proto_data(ptr noundef %4, i32 noundef %5)
  %.not = icmp eq ptr %6, null
  br i1 %.not, label %83, label %7

7:                                                ; preds = %3
  %8 = tail call ptr @wmem_packet_scope()
  %9 = tail call noalias dereferenceable_or_null(48) ptr @wmem_alloc0(ptr noundef %8, i64 noundef 48) #12
  store ptr %6, ptr %9, align 8
  %10 = tail call ptr @wmem_packet_scope()
  %11 = tail call noalias dereferenceable_or_null(12) ptr @wmem_alloc(ptr noundef %10, i64 noundef 12) #12
  %12 = getelementptr inbounds nuw i8, ptr %1, i64 20
  %13 = load i32, ptr %12, align 4
  store i32 %13, ptr %11, align 4
  %14 = getelementptr inbounds nuw i8, ptr %11, i64 4
  store i32 -1, ptr %14, align 4
  %15 = getelementptr inbounds nuw i8, ptr %1, i64 104
  %.016.i.i = load ptr, ptr %15, align 8
  %.not17.i.i = icmp eq ptr %.016.i.i, null
  br i1 %.not17.i.i, label %tcpcl_frame_loc_new.exit, label %.lr.ph.i.i

.lr.ph.i.i:                                       ; preds = %7
  %16 = getelementptr inbounds nuw i8, ptr %0, i64 32
  br label %19

17:                                               ; preds = %19
  %18 = getelementptr inbounds nuw i8, ptr %.018.i.i, i64 8
  %.0.i.i = load ptr, ptr %18, align 8
  %.not.i.i = icmp eq ptr %.0.i.i, null
  br i1 %.not.i.i, label %tcpcl_frame_loc_init.exit.loopexit.i, label %19, !llvm.loop !6

19:                                               ; preds = %17, %.lr.ph.i.i
  %20 = phi i32 [ -1, %.lr.ph.i.i ], [ %21, %17 ]
  %.018.i.i = phi ptr [ %.016.i.i, %.lr.ph.i.i ], [ %.0.i.i, %17 ]
  %21 = add i32 %20, 1
  %22 = load ptr, ptr %.018.i.i, align 8
  %23 = tail call ptr @get_data_source_tvb(ptr noundef %22)
  %24 = getelementptr inbounds nuw i8, ptr %23, i64 32
  %25 = load ptr, ptr %24, align 8
  %26 = load ptr, ptr %16, align 8
  %.not15.i.i = icmp eq ptr %25, %26
  br i1 %.not15.i.i, label %tcpcl_frame_loc_init.exit.loopexit.i, label %17

tcpcl_frame_loc_init.exit.loopexit.i:             ; preds = %19, %17
  store i32 %21, ptr %14, align 4
  br label %tcpcl_frame_loc_new.exit

tcpcl_frame_loc_new.exit:                         ; preds = %7, %tcpcl_frame_loc_init.exit.loopexit.i
  %27 = tail call i32 @tvb_raw_offset(ptr noundef %0)
  %28 = add i32 %27, %2
  %29 = getelementptr inbounds nuw i8, ptr %11, i64 8
  store i32 %28, ptr %29, align 4
  %30 = getelementptr inbounds nuw i8, ptr %9, i64 8
  store ptr %11, ptr %30, align 8
  %31 = load ptr, ptr %6, align 8
  %32 = getelementptr inbounds nuw i8, ptr %1, i64 208
  %33 = load i32, ptr %31, align 8
  %34 = load i32, ptr %32, align 8
  %35 = icmp eq i32 %33, %34
  br i1 %35, label %36, label %.critedge

36:                                               ; preds = %tcpcl_frame_loc_new.exit
  %37 = getelementptr inbounds nuw i8, ptr %31, i64 4
  %38 = load i32, ptr %37, align 4
  %39 = getelementptr inbounds nuw i8, ptr %1, i64 212
  %40 = load i32, ptr %39, align 4
  %41 = icmp eq i32 %38, %40
  br i1 %41, label %42, label %.critedge

42:                                               ; preds = %36
  %43 = icmp eq i32 %38, 0
  br i1 %43, label %51, label %44

44:                                               ; preds = %42
  %45 = getelementptr inbounds nuw i8, ptr %31, i64 8
  %46 = load ptr, ptr %45, align 8
  %47 = getelementptr inbounds nuw i8, ptr %1, i64 216
  %48 = load ptr, ptr %47, align 8
  %49 = sext i32 %38 to i64
  %bcmp.i = tail call i32 @bcmp(ptr %46, ptr %48, i64 %49)
  %50 = icmp eq i32 %bcmp.i, 0
  br i1 %50, label %51, label %.critedge

51:                                               ; preds = %44, %42
  %52 = getelementptr inbounds nuw i8, ptr %31, i64 24
  %53 = load i32, ptr %52, align 8
  %54 = getelementptr inbounds nuw i8, ptr %1, i64 284
  %55 = load i32, ptr %54, align 4
  %56 = icmp eq i32 %53, %55
  br i1 %56, label %57, label %.critedge

57:                                               ; preds = %51
  %58 = getelementptr inbounds nuw i8, ptr %9, i64 24
  store ptr %31, ptr %58, align 8
  %59 = getelementptr inbounds nuw i8, ptr %6, i64 8
  %60 = load ptr, ptr %59, align 8
  br label %64

.critedge:                                        ; preds = %44, %36, %tcpcl_frame_loc_new.exit, %51
  %61 = getelementptr inbounds nuw i8, ptr %6, i64 8
  %62 = load ptr, ptr %61, align 8
  %63 = getelementptr inbounds nuw i8, ptr %9, i64 24
  store ptr %62, ptr %63, align 8
  br label %64

64:                                               ; preds = %.critedge, %57
  %.sink = phi ptr [ %31, %.critedge ], [ %60, %57 ]
  %65 = phi ptr [ %62, %.critedge ], [ %31, %57 ]
  %66 = getelementptr inbounds nuw i8, ptr %9, i64 32
  store ptr %.sink, ptr %66, align 8
  %67 = getelementptr inbounds nuw i8, ptr %65, i64 28
  %68 = load i8, ptr %67, align 4, !range !8, !noundef !9
  %69 = trunc nuw i8 %68 to i1
  br i1 %69, label %tcpcl_frame_loc_equal.exit, label %70

70:                                               ; preds = %64
  %71 = getelementptr inbounds nuw i8, ptr %65, i64 32
  %72 = load ptr, ptr %71, align 8
  %.not30 = icmp eq ptr %72, null
  br i1 %.not30, label %tcpcl_frame_loc_equal.exit, label %73

73:                                               ; preds = %70
  %74 = load i32, ptr %72, align 4
  %75 = icmp eq i32 %74, %13
  br i1 %75, label %76, label %tcpcl_frame_loc_equal.exit

76:                                               ; preds = %73
  %77 = getelementptr inbounds nuw i8, ptr %72, i64 8
  %78 = load i32, ptr %77, align 4
  %79 = icmp eq i32 %78, %28
  %80 = zext i1 %79 to i8
  br label %tcpcl_frame_loc_equal.exit

tcpcl_frame_loc_equal.exit:                       ; preds = %76, %73, %70, %64
  %81 = phi i8 [ 0, %64 ], [ 1, %70 ], [ 0, %73 ], [ %80, %76 ]
  %82 = getelementptr inbounds nuw i8, ptr %9, i64 16
  store i8 %81, ptr %82, align 8
  br label %83

83:                                               ; preds = %3, %tcpcl_frame_loc_equal.exit
  %.0 = phi ptr [ %9, %tcpcl_frame_loc_equal.exit ], [ null, %3 ]
  ret ptr %.0
}